target datalayout = "e-m:e-p270:32:32-p271:32:32-p272:64:64-i64:64-i128:128-f80:128-n8:16:32:64-S128"
target triple = "x86_64-pc-linux-gnu"

%struct.sp_int = type { i16, i16, [129 x i64] }

; Function Attrs: nounwind uwtable
define internal void @_sp_add_off(ptr noundef %0, ptr noundef %1, ptr noundef %2, i32 noundef %3) #0 {
  %5 = alloca ptr, align 8
  %6 = alloca ptr, align 8
  %7 = alloca ptr, align 8
  %8 = alloca i32, align 4
  %9 = alloca i16, align 2
  %10 = alloca i128, align 16
  %11 = alloca i32, align 4
  store ptr %0, ptr %5, align 8, !tbaa !3
  store ptr %1, ptr %6, align 8, !tbaa !3
  store ptr %2, ptr %7, align 8, !tbaa !3
  store i32 %3, ptr %8, align 4, !tbaa !8
  call void @llvm.lifetime.start.p0(i64 2, ptr %9) #8
  store i16 0, ptr %9, align 2, !tbaa !32
  call void @llvm.lifetime.start.p0(i64 16, ptr %10) #8
  store i128 0, ptr %10, align 16, !tbaa !47
  br label %12

12:                                               ; preds = %58, %4
  %13 = load i16, ptr %9, align 2, !tbaa !32
  %14 = zext i16 %13 to i32
  %15 = load ptr, ptr %5, align 8, !tbaa !3
  %16 = getelementptr inbounds nuw %struct.sp_int, ptr %15, i32 0, i32 0
  %17 = load i16, ptr %16, align 8, !tbaa !15
  %18 = zext i16 %17 to i32
  %19 = icmp slt i32 %14, %18
  br i1 %19, label %20, label %28

20:                                               ; preds = %12
  %21 = load i16, ptr %9, align 2, !tbaa !32
  %22 = zext i16 %21 to i32
  %23 = load ptr, ptr %6, align 8, !tbaa !3
  %24 = getelementptr inbounds nuw %struct.sp_int, ptr %23, i32 0, i32 0
  %25 = load i16, ptr %24, align 8, !tbaa !15
  %26 = zext i16 %25 to i32
  %27 = icmp slt i32 %22, %26
  br label %28

28:                                               ; preds = %20, %12
  %29 = phi i1 [ false, %12 ], [ %27, %20 ]
  br i1 %29, label %30, label %61

30:                                               ; preds = %28
  %31 = load ptr, ptr %5, align 8, !tbaa !3
  %32 = getelementptr inbounds nuw %struct.sp_int, ptr %31, i32 0, i32 2
  %33 = load i16, ptr %9, align 2, !tbaa !32
  %34 = zext i16 %33 to i64
  %35 = getelementptr inbounds nuw [129 x i64], ptr %32, i64 0, i64 %34
  %36 = load i64, ptr %35, align 8, !tbaa !16
  %37 = zext i64 %36 to i128
  %38 = load i128, ptr %10, align 16, !tbaa !47
  %39 = add i128 %38, %37
  store i128 %39, ptr %10, align 16, !tbaa !47
  %40 = load ptr, ptr %6, align 8, !tbaa !3
  %41 = getelementptr inbounds nuw %struct.sp_int, ptr %40, i32 0, i32 2
  %42 = load i16, ptr %9, align 2, !tbaa !32
  %43 = zext i16 %42 to i64
  %44 = getelementptr inbounds nuw [129 x i64], ptr %41, i64 0, i64 %43
  %45 = load i64, ptr %44, align 8, !tbaa !16
  %46 = zext i64 %45 to i128
  %47 = load i128, ptr %10, align 16, !tbaa !47
  %48 = add i128 %47, %46
  store i128 %48, ptr %10, align 16, !tbaa !47
  %49 = load i128, ptr %10, align 16, !tbaa !47
  %50 = trunc i128 %49 to i64
  %51 = load ptr, ptr %7, align 8, !tbaa !3
  %52 = getelementptr inbounds nuw %struct.sp_int, ptr %51, i32 0, i32 2
  %53 = load i16, ptr %9, align 2, !tbaa !32
  %54 = zext i16 %53 to i64
  %55 = getelementptr inbounds nuw [129 x i64], ptr %52, i64 0, i64 %54
  store i64 %50, ptr %55, align 8, !tbaa !16
  %56 = load i128, ptr %10, align 16, !tbaa !47
  %57 = lshr i128 %56, 64
  store i128 %57, ptr %10, align 16, !tbaa !47
  br label %58

58:                                               ; preds = %30
  %59 = load i16, ptr %9, align 2, !tbaa !32
  %60 = add i16 %59, 1
  store i16 %60, ptr %9, align 2, !tbaa !32
  br label %12, !llvm.loop !63

61:                                               ; preds = %28
  br label %62

62:                                               ; preds = %89, %61
  %63 = load i16, ptr %9, align 2, !tbaa !32
  %64 = zext i16 %63 to i32
  %65 = load ptr, ptr %5, align 8, !tbaa !3
  %66 = getelementptr inbounds nuw %struct.sp_int, ptr %65, i32 0, i32 0
  %67 = load i16, ptr %66, align 8, !tbaa !15
  %68 = zext i16 %67 to i32
  %69 = icmp slt i32 %64, %68
  br i1 %69, label %70, label %92

70:                                               ; preds = %62
  %71 = load ptr, ptr %5, align 8, !tbaa !3
  %72 = getelementptr inbounds nuw %struct.sp_int, ptr %71, i32 0, i32 2
  %73 = load i16, ptr %9, align 2, !tbaa !32
  %74 = zext i16 %73 to i64
  %75 = getelementptr inbounds nuw [129 x i64], ptr %72, i64 0, i64 %74
  %76 = load i64, ptr %75, align 8, !tbaa !16
  %77 = zext i64 %76 to i128
  %78 = load i128, ptr %10, align 16, !tbaa !47
  %79 = add i128 %78, %77
  store i128 %79, ptr %10, align 16, !tbaa !47
  %80 = load i128, ptr %10, align 16, !tbaa !47
  %81 = trunc i128 %80 to i64
  %82 = load ptr, ptr %7, align 8, !tbaa !3
  %83 = getelementptr inbounds nuw %struct.sp_int, ptr %82, i32 0, i32 2
  %84 = load i16, ptr %9, align 2, !tbaa !32
  %85 = zext i16 %84 to i64
  %86 = getelementptr inbounds nuw [129 x i64], ptr %83, i64 0, i64 %85
  store i64 %81, ptr %86, align 8, !tbaa !16
  %87 = load i128, ptr %10, align 16, !tbaa !47
  %88 = lshr i128 %87, 64
  store i128 %88, ptr %10, align 16, !tbaa !47
  br label %89

89:                                               ; preds = %70
  %90 = load i16, ptr %9, align 2, !tbaa !32
  %91 = add i16 %90, 1
  store i16 %91, ptr %9, align 2, !tbaa !32
  br label %62, !llvm.loop !64

92:                                               ; preds = %62
  br label %93

93:                                               ; preds = %120, %92
  %94 = load i16, ptr %9, align 2, !tbaa !32
  %95 = zext i16 %94 to i32
  %96 = load ptr, ptr %6, align 8, !tbaa !3
  %97 = getelementptr inbounds nuw %struct.sp_int, ptr %96, i32 0, i32 0
  %98 = load i16, ptr %97, align 8, !tbaa !15
  %99 = zext i16 %98 to i32
  %100 = icmp slt i32 %95, %99
  br i1 %100, label %101, label %123

101:                                              ; preds = %93
  %102 = load ptr, ptr %6, align 8, !tbaa !3
  %103 = getelementptr inbounds nuw %struct.sp_int, ptr %102, i32 0, i32 2
  %104 = load i16, ptr %9, align 2, !tbaa !32
  %105 = zext i16 %104 to i64
  %106 = getelementptr inbounds nuw [129 x i64], ptr %103, i64 0, i64 %105
  %107 = load i64, ptr %106, align 8, !tbaa !16
  %108 = zext i64 %107 to i128
  %109 = load i128, ptr %10, align 16, !tbaa !47
  %110 = add i128 %109, %108
  store i128 %110, ptr %10, align 16, !tbaa !47
  %111 = load i128, ptr %10, align 16, !tbaa !47
  %112 = trunc i128 %111 to i64
  %113 = load ptr, ptr %7, align 8, !tbaa !3
  %114 = getelementptr inbounds nuw %struct.sp_int, ptr %113, i32 0, i32 2
  %115 = load i16, ptr %9, align 2, !tbaa !32
  %116 = zext i16 %115 to i64
  %117 = getelementptr inbounds nuw [129 x i64], ptr %114, i64 0, i64 %116
  store i64 %112, ptr %117, align 8, !tbaa !16
  %118 = load i128, ptr %10, align 16, !tbaa !47
  %119 = lshr i128 %118, 64
  store i128 %119, ptr %10, align 16, !tbaa !47
  br label %120

120:                                              ; preds = %101
  %121 = load i16, ptr %9, align 2, !tbaa !32
  %122 = add i16 %121, 1
  store i16 %122, ptr %9, align 2, !tbaa !32
  br label %93, !llvm.loop !65

123:                                              ; preds = %93
  %124 = load i16, ptr %9, align 2, !tbaa !32
  %125 = load ptr, ptr %7, align 8, !tbaa !3
  %126 = getelementptr inbounds nuw %struct.sp_int, ptr %125, i32 0, i32 0
  store i16 %124, ptr %126, align 8, !tbaa !15
  %127 = load i128, ptr %10, align 16, !tbaa !47
  %128 = trunc i128 %127 to i64
  %129 = load ptr, ptr %7, align 8, !tbaa !3
  %130 = getelementptr inbounds nuw %struct.sp_int, ptr %129, i32 0, i32 2
  %131 = load i16, ptr %9, align 2, !tbaa !32
  %132 = zext i16 %131 to i64
  %133 = getelementptr inbounds nuw [129 x i64], ptr %130, i64 0, i64 %132
  store i64 %128, ptr %133, align 8, !tbaa !16
  %134 = load ptr, ptr %7, align 8, !tbaa !3
  %135 = getelementptr inbounds nuw %struct.sp_int, ptr %134, i32 0, i32 0
  %136 = load i16, ptr %135, align 8, !tbaa !15
  %137 = zext i16 %136 to i32
  %138 = load i128, ptr %10, align 16, !tbaa !47
  %139 = icmp ne i128 %138, 0
  %140 = zext i1 %139 to i32
  %141 = trunc i32 %140 to i16
  %142 = zext i16 %141 to i32
  %143 = add nsw i32 %137, %142
  %144 = trunc i32 %143 to i16
  %145 = load ptr, ptr %7, align 8, !tbaa !3
  %146 = getelementptr inbounds nuw %struct.sp_int, ptr %145, i32 0, i32 0
  store i16 %144, ptr %146, align 8, !tbaa !15
  br label %147

147:                                              ; preds = %123
  call void @llvm.lifetime.start.p0(i64 4, ptr %11) #8
  %148 = load ptr, ptr %7, align 8, !tbaa !3
  %149 = getelementptr inbounds nuw %struct.sp_int, ptr %148, i32 0, i32 0
  %150 = load i16, ptr %149, align 8, !tbaa !15
  %151 = zext i16 %150 to i32
  %152 = icmp sgt i32 %151, 0
  br i1 %152, label %153, label %182

153:                                              ; preds = %147
  %154 = load ptr, ptr %7, align 8, !tbaa !3
  %155 = getelementptr inbounds nuw %struct.sp_int, ptr %154, i32 0, i32 0
  %156 = load i16, ptr %155, align 8, !tbaa !15
  %157 = zext i16 %156 to i32
  %158 = sub nsw i32 %157, 1
  store i32 %158, ptr %11, align 4, !tbaa !8
  br label %159

159:                                              ; preds = %173, %153
  %160 = load i32, ptr %11, align 4, !tbaa !8
  %161 = icmp sge i32 %160, 0
  br i1 %161, label %162, label %170

162:                                              ; preds = %159
  %163 = load ptr, ptr %7, align 8, !tbaa !3
  %164 = getelementptr inbounds nuw %struct.sp_int, ptr %163, i32 0, i32 2
  %165 = load i32, ptr %11, align 4, !tbaa !8
  %166 = sext i32 %165 to i64
  %167 = getelementptr inbounds [129 x i64], ptr %164, i64 0, i64 %166
  %168 = load i64, ptr %167, align 8, !tbaa !16
  %169 = icmp eq i64 %168, 0
  br label %170

170:                                              ; preds = %162, %159
  %171 = phi i1 [ false, %159 ], [ %169, %162 ]
  br i1 %171, label %172, label %176

172:                                              ; preds = %170
  br label %173

173:                                              ; preds = %172
  %174 = load i32, ptr %11, align 4, !tbaa !8
  %175 = add nsw i32 %174, -1
  store i32 %175, ptr %11, align 4, !tbaa !8
  br label %159, !llvm.loop !66

176:                                              ; preds = %170
  %177 = load i32, ptr %11, align 4, !tbaa !8
  %178 = add nsw i32 %177, 1
  %179 = trunc i32 %178 to i16
  %180 = load ptr, ptr %7, align 8, !tbaa !3
  %181 = getelementptr inbounds nuw %struct.sp_int, ptr %180, i32 0, i32 0
  store i16 %179, ptr %181, align 8, !tbaa !15
  br label %182

182:                                              ; preds = %176, %147
  call void @llvm.lifetime.end.p0(i64 4, ptr %11) #8
  br label %183

183:                                              ; preds = %182
  br label %184

184:                                              ; preds = %183
  call void @llvm.lifetime.end.p0(i64 16, ptr %10) #8
  call void @llvm.lifetime.end.p0(i64 2, ptr %9) #8
  ret void
}

; Function Attrs: nounwind uwtable
define i32 @sp_add(ptr noundef %0, ptr noundef %1, ptr noundef %2) #0 {
  %4 = alloca ptr, align 8
  %5 = alloca ptr, align 8
  %6 = alloca ptr, align 8
  %7 = alloca i32, align 4
  store ptr %0, ptr %4, align 8, !tbaa !3
  store ptr %1, ptr %5, align 8, !tbaa !3
  store ptr %2, ptr %6, align 8, !tbaa !3
  call void @llvm.lifetime.start.p0(i64 4, ptr %7) #8
  store i32 0, ptr %7, align 4, !tbaa !8
  %8 = load ptr, ptr %4, align 8, !tbaa !3
  %9 = icmp eq ptr %8, null
  br i1 %9, label %16, label %10

10:                                               ; preds = %3
  %11 = load ptr, ptr %5, align 8, !tbaa !3
  %12 = icmp eq ptr %11, null
  br i1 %12, label %16, label %13

13:                                               ; preds = %10
  %14 = load ptr, ptr %6, align 8, !tbaa !3
  %15 = icmp eq ptr %14, null
  br i1 %15, label %16, label %17

16:                                               ; preds = %13, %10, %3
  store i32 -98, ptr %7, align 4, !tbaa !8
  br label %17

17:                                               ; preds = %16, %13
  %18 = load i32, ptr %7, align 4, !tbaa !8
  %19 = icmp eq i32 %18, 0
  br i1 %19, label %20, label %41

20:                                               ; preds = %17
  %21 = load ptr, ptr %4, align 8, !tbaa !3
  %22 = getelementptr inbounds nuw %struct.sp_int, ptr %21, i32 0, i32 0
  %23 = load i16, ptr %22, align 8, !tbaa !15
  %24 = zext i16 %23 to i32
  %25 = load ptr, ptr %6, align 8, !tbaa !3
  %26 = getelementptr inbounds nuw %struct.sp_int, ptr %25, i32 0, i32 1
  %27 = load i16, ptr %26, align 2, !tbaa !12
  %28 = zext i16 %27 to i32
  %29 = icmp sge i32 %24, %28
  br i1 %29, label %40, label %30

30:                                               ; preds = %20
  %31 = load ptr, ptr %5, align 8, !tbaa !3
  %32 = getelementptr inbounds nuw %struct.sp_int, ptr %31, i32 0, i32 0
  %33 = load i16, ptr %32, align 8, !tbaa !15
  %34 = zext i16 %33 to i32
  %35 = load ptr, ptr %6, align 8, !tbaa !3
  %36 = getelementptr inbounds nuw %struct.sp_int, ptr %35, i32 0, i32 1
  %37 = load i16, ptr %36, align 2, !tbaa !12
  %38 = zext i16 %37 to i32
  %39 = icmp sge i32 %34, %38
  br i1 %39, label %40, label %41

40:                                               ; preds = %30, %20
  store i32 -98, ptr %7, align 4, !tbaa !8
  br label %41

41:                                               ; preds = %40, %30, %17
  %42 = load i32, ptr %7, align 4, !tbaa !8
  %43 = icmp eq i32 %42, 0
  br i1 %43, label %44, label %48

44:                                               ; preds = %41
  %45 = load ptr, ptr %4, align 8, !tbaa !3
  %46 = load ptr, ptr %5, align 8, !tbaa !3
  %47 = load ptr, ptr %6, align 8, !tbaa !3
  call void @_sp_add_off(ptr noundef %45, ptr noundef %46, ptr noundef %47, i32 noundef 0)
  br label %48

48:                                               ; preds = %44, %41
  %49 = load i32, ptr %7, align 4, !tbaa !8
  call void @llvm.lifetime.end.p0(i64 4, ptr %7) #8
  ret i32 %49
}