; Function Attrs: nofree norecurse nosync nounwind memory(argmem: readwrite) uwtable
define range(i32 -98, 1) i32 @sp_add(ptr noundef readonly captures(address_is_null) %0, ptr noundef readonly captures(address_is_null) %1, ptr noundef captures(address_is_null) %2) local_unnamed_addr #8 {
  %4 = icmp ne ptr %0, null
  %5 = icmp ne ptr %1, null
  %or.cond.not18 = and i1 %4, %5
  %6 = icmp ne ptr %2, null
  %or.cond3.not = and i1 %or.cond.not18, %6
  br i1 %or.cond3.not, label %7, label %_sp_add_off.exit

7:                                                ; preds = %3
  %8 = load i16, ptr %0, align 8, !tbaa !12
  %9 = getelementptr inbounds nuw i8, ptr %2, i64 2
  %10 = load i16, ptr %9, align 2, !tbaa !10
  %.not = icmp ult i16 %8, %10
  br i1 %.not, label %11, label %_sp_add_off.exit

11:                                               ; preds = %7
  %12 = load i16, ptr %1, align 8, !tbaa !12
  %.not19 = icmp ult i16 %12, %10
  br i1 %.not19, label %.thread, label %_sp_add_off.exit

.thread:                                          ; preds = %11
  %.not76.i = icmp eq i16 %8, 0
  br i1 %.not76.i, label %.critedge.i, label %.lr.ph.i

.lr.ph.i:                                         ; preds = %.thread
  %13 = getelementptr inbounds nuw i8, ptr %0, i64 8
  %14 = getelementptr inbounds nuw i8, ptr %1, i64 8
  %15 = getelementptr inbounds nuw i8, ptr %2, i64 8
  %16 = add i16 %8, -1
  %umin.i = tail call i16 @llvm.umin.i16(i16 %12, i16 %16)
  %17 = add nuw i16 %umin.i, 1
  %wide.trip.count.i = zext i16 %12 to i64
  %wide.trip.count81.i = zext i16 %8 to i64
  br label %18

18:                                               ; preds = %19, %.lr.ph.i
  %indvars.iv.i = phi i64 [ 0, %.lr.ph.i ], [ %indvars.iv.next.i, %19 ]
  %.05259.i = phi i128 [ 0, %.lr.ph.i ], [ %30, %19 ]
  %exitcond.not.i = icmp eq i64 %indvars.iv.i, %wide.trip.count.i
  br i1 %exitcond.not.i, label %.critedge.i, label %19

19:                                               ; preds = %18
  %20 = getelementptr inbounds nuw [129 x i64], ptr %13, i64 0, i64 %indvars.iv.i
  %21 = load i64, ptr %20, align 8, !tbaa !8
  %22 = zext i64 %21 to i128
  %23 = add nuw nsw i128 %.05259.i, %22
  %24 = getelementptr inbounds nuw [129 x i64], ptr %14, i64 0, i64 %indvars.iv.i
  %25 = load i64, ptr %24, align 8, !tbaa !8
  %26 = zext i64 %25 to i128
  %27 = add nuw nsw i128 %23, %26
  %28 = trunc i128 %27 to i64
  %29 = getelementptr inbounds nuw [129 x i64], ptr %15, i64 0, i64 %indvars.iv.i
  store i64 %28, ptr %29, align 8, !tbaa !8
  %30 = lshr i128 %27, 64
  %indvars.iv.next.i = add nuw nsw i64 %indvars.iv.i, 1
  %exitcond82.not.i = icmp eq i64 %indvars.iv.next.i, %wide.trip.count81.i
  br i1 %exitcond82.not.i, label %.critedge.i, label %18, !llvm.loop !44

.critedge.i:                                      ; preds = %19, %18, %.thread
  %.053.lcssa.i = phi i16 [ 0, %.thread ], [ %umin.i, %18 ], [ %17, %19 ]
  %.052.lcssa.i = phi i128 [ 0, %.thread ], [ %.05259.i, %18 ], [ %30, %19 ]
  %31 = icmp ult i16 %.053.lcssa.i, %8
  br i1 %31, label %.lr.ph68.i, label %.preheader.i

.lr.ph68.i:                                       ; preds = %.critedge.i
  %32 = getelementptr inbounds nuw i8, ptr %0, i64 8
  %33 = getelementptr inbounds nuw i8, ptr %2, i64 8
  %34 = zext i16 %.053.lcssa.i to i64
  %wide.trip.count86.i = zext i16 %8 to i64
  br label %39

.preheader.i:                                     ; preds = %39, %.critedge.i
  %.154.lcssa.i = phi i16 [ %.053.lcssa.i, %.critedge.i ], [ %8, %39 ]
  %.1.lcssa.i = phi i128 [ %.052.lcssa.i, %.critedge.i ], [ %46, %39 ]
  %35 = icmp ult i16 %.154.lcssa.i, %12
  br i1 %35, label %.lr.ph73.i, label %.preheader.._crit_edge_crit_edge.i

.preheader.._crit_edge_crit_edge.i:               ; preds = %.preheader.i
  %.pre.i = zext i16 %.154.lcssa.i to i64
  br label %._crit_edge.i

.lr.ph73.i:                                       ; preds = %.preheader.i
  %36 = getelementptr inbounds nuw i8, ptr %1, i64 8
  %37 = getelementptr inbounds nuw i8, ptr %2, i64 8
  %38 = zext i16 %.154.lcssa.i to i64
  %wide.trip.count91.i = zext i16 %12 to i64
  br label %47

39:                                               ; preds = %39, %.lr.ph68.i
  %indvars.iv83.i = phi i64 [ %34, %.lr.ph68.i ], [ %indvars.iv.next84.i, %39 ]
  %.167.i = phi i128 [ %.052.lcssa.i, %.lr.ph68.i ], [ %46, %39 ]
  %40 = getelementptr inbounds nuw [129 x i64], ptr %32, i64 0, i64 %indvars.iv83.i
  %41 = load i64, ptr %40, align 8, !tbaa !8
  %42 = zext i64 %41 to i128
  %43 = add nuw nsw i128 %.167.i, %42
  %44 = trunc i128 %43 to i64
  %45 = getelementptr inbounds nuw [129 x i64], ptr %33, i64 0, i64 %indvars.iv83.i
  store i64 %44, ptr %45, align 8, !tbaa !8
  %46 = lshr i128 %43, 64
  %indvars.iv.next84.i = add nuw nsw i64 %indvars.iv83.i, 1
  %exitcond87.not.i = icmp eq i64 %indvars.iv.next84.i, %wide.trip.count86.i
  br i1 %exitcond87.not.i, label %.preheader.i, label %39, !llvm.loop !45

47:                                               ; preds = %47, %.lr.ph73.i
  %indvars.iv88.i = phi i64 [ %38, %.lr.ph73.i ], [ %indvars.iv.next89.i, %47 ]
  %.272.i = phi i128 [ %.1.lcssa.i, %.lr.ph73.i ], [ %54, %47 ]
  %48 = getelementptr inbounds nuw [129 x i64], ptr %36, i64 0, i64 %indvars.iv88.i
  %49 = load i64, ptr %48, align 8, !tbaa !8
  %50 = zext i64 %49 to i128
  %51 = add nuw nsw i128 %.272.i, %50
  %52 = trunc i128 %51 to i64
  %53 = getelementptr inbounds nuw [129 x i64], ptr %37, i64 0, i64 %indvars.iv88.i
  store i64 %52, ptr %53, align 8, !tbaa !8
  %54 = lshr i128 %51, 64
  %indvars.iv.next89.i = add nuw nsw i64 %indvars.iv88.i, 1
  %exitcond92.not.i = icmp eq i64 %indvars.iv.next89.i, %wide.trip.count91.i
  br i1 %exitcond92.not.i, label %._crit_edge.i, label %47, !llvm.loop !46

._crit_edge.i:                                    ; preds = %47, %.preheader.._crit_edge_crit_edge.i
  %.pre-phi.i = phi i64 [ %.pre.i, %.preheader.._crit_edge_crit_edge.i ], [ %wide.trip.count91.i, %47 ]
  %.255.lcssa.i = phi i16 [ %.154.lcssa.i, %.preheader.._crit_edge_crit_edge.i ], [ %12, %47 ]
  %.2.lcssa.i = phi i128 [ %.1.lcssa.i, %.preheader.._crit_edge_crit_edge.i ], [ %54, %47 ]
  %55 = trunc nuw nsw i128 %.2.lcssa.i to i64
  %56 = getelementptr inbounds nuw i8, ptr %2, i64 8
  %57 = getelementptr inbounds nuw [129 x i64], ptr %56, i64 0, i64 %.pre-phi.i
  store i64 %55, ptr %57, align 8, !tbaa !8
  %58 = icmp ne i128 %.2.lcssa.i, 0
  %59 = zext i1 %58 to i16
  %60 = add i16 %.255.lcssa.i, %59
  store i16 %60, ptr %2, align 8, !tbaa !12
  %.not.i = icmp eq i16 %60, 0
  br i1 %.not.i, label %_sp_add_off.exit, label %61

61:                                               ; preds = %._crit_edge.i
  %62 = zext i16 %60 to i64
  br label %63

63:                                               ; preds = %65, %61
  %indvars.iv93.i = phi i64 [ %indvars.iv.next94.i, %65 ], [ %62, %61 ]
  %64 = icmp sgt i64 %indvars.iv93.i, 0
  br i1 %64, label %65, label %.critedge2.i

65:                                               ; preds = %63
  %indvars.iv.next94.i = add nsw i64 %indvars.iv93.i, -1
  %66 = getelementptr inbounds nuw [129 x i64], ptr %56, i64 0, i64 %indvars.iv.next94.i
  %67 = load i64, ptr %66, align 8, !tbaa !8
  %68 = icmp eq i64 %67, 0
  br i1 %68, label %63, label %.critedge2.split.loop.exit97.i, !llvm.loop !47

.critedge2.split.loop.exit97.i:                   ; preds = %65
  %69 = trunc i64 %indvars.iv93.i to i16
  br label %.critedge2.i

.critedge2.i:                                     ; preds = %63, %.critedge2.split.loop.exit97.i
  %.0.in.lcssa.i = phi i16 [ %69, %.critedge2.split.loop.exit97.i ], [ 0, %63 ]
  store i16 %.0.in.lcssa.i, ptr %2, align 8, !tbaa !12
  br label %_sp_add_off.exit

_sp_add_off.exit:                                 ; preds = %3, %11, %7, %.critedge2.i, %._crit_edge.i
  %.121 = phi i32 [ 0, %._crit_edge.i ], [ 0, %.critedge2.i ], [ -98, %7 ], [ -98, %11 ], [ -98, %3 ]
  ret i32 %.121
}